; Function Attrs: noinline norecurse nounwind uwtable
define internal void @_ZN5faiss17unpack_bitstringsEmmiPKhmPi.omp_outlined(ptr noalias noundef readonly captures(none) %0, ptr noalias readnone captures(none) %1, ptr noundef nonnull readonly align 8 captures(none) dereferenceable(8) %2, ptr noundef nonnull readonly align 8 captures(none) dereferenceable(8) %3, ptr noundef nonnull readonly align 8 captures(none) dereferenceable(8) %4, ptr noundef nonnull readonly align 8 captures(none) dereferenceable(8) %5, ptr noundef nonnull readonly align 8 captures(none) dereferenceable(8) %6, ptr noundef nonnull readonly align 4 captures(none) dereferenceable(4) %7) #4 personality ptr @__gxx_personality_v0 {
  %9 = alloca i64, align 8
  %10 = alloca i64, align 8
  %11 = alloca i64, align 8
  %12 = alloca i32, align 4
  %13 = load i64, ptr %2, align 8, !tbaa !4
  %.not = icmp eq i64 %13, 0
  br i1 %.not, label %68, label %14

14:                                               ; preds = %8
  %15 = add i64 %13, -1
  call void @llvm.lifetime.start.p0(i64 8, ptr nonnull %9) #5
  store i64 0, ptr %9, align 8, !tbaa !4
  call void @llvm.lifetime.start.p0(i64 8, ptr nonnull %10) #5
  store i64 %15, ptr %10, align 8, !tbaa !4
  call void @llvm.lifetime.start.p0(i64 8, ptr nonnull %11) #5
  store i64 1, ptr %11, align 8, !tbaa !4
  call void @llvm.lifetime.start.p0(i64 4, ptr nonnull %12) #5
  store i32 0, ptr %12, align 4, !tbaa !10
  %16 = load i32, ptr %0, align 4, !tbaa !10
  call void @__kmpc_for_static_init_8u(ptr nonnull @1, i32 %16, i32 34, ptr nonnull %12, ptr nonnull %9, ptr nonnull %10, ptr nonnull %11, i64 1, i64 1)
  %17 = load i64, ptr %10, align 8, !tbaa !4
  %18 = call i64 @llvm.umin.i64(i64 %17, i64 %15)
  store i64 %18, ptr %10, align 8, !tbaa !4
  %19 = load i64, ptr %9, align 8, !tbaa !4
  %.not37 = icmp ugt i64 %19, %18
  br i1 %.not37, label %._crit_edge30, label %.lr.ph29

.lr.ph29:                                         ; preds = %14
  %20 = load ptr, ptr %3, align 8, !tbaa !22
  %21 = load i64, ptr %4, align 8, !tbaa !4
  %22 = load ptr, ptr %5, align 8, !tbaa !36
  %23 = load i64, ptr %6, align 8, !tbaa !4
  %.not31 = icmp eq i64 %23, 0
  br i1 %.not31, label %._crit_edge30, label %.lr.ph.us

.lr.ph.us:                                        ; preds = %.lr.ph29, %._crit_edge.us
  %.02227.us = phi i64 [ %67, %._crit_edge.us ], [ %19, %.lr.ph29 ]
  %24 = mul i64 %21, %.02227.us
  %25 = getelementptr inbounds nuw i8, ptr %20, i64 %24
  %26 = mul i64 %23, %.02227.us
  %27 = getelementptr inbounds nuw i32, ptr %22, i64 %26
  br label %28

28:                                               ; preds = %.lr.ph.us, %_ZN5faiss15BitstringReader4readEi.exit.us
  %indvars.iv = phi i64 [ 0, %.lr.ph.us ], [ %indvars.iv.next, %_ZN5faiss15BitstringReader4readEi.exit.us ]
  %.sroa.5.025.us = phi i64 [ 0, %.lr.ph.us ], [ %.sroa.5.1.us, %_ZN5faiss15BitstringReader4readEi.exit.us ]
  %29 = load i32, ptr %7, align 4, !tbaa !10
  %30 = trunc i64 %.sroa.5.025.us to i32
  %31 = and i32 %30, 7
  %32 = sub nuw nsw i32 8, %31
  %33 = lshr i64 %.sroa.5.025.us, 3
  %34 = getelementptr inbounds nuw i8, ptr %25, i64 %33
  %35 = load i8, ptr %34, align 1, !tbaa !14
  %36 = zext i8 %35 to i32
  %37 = lshr i32 %36, %31
  %.not.i.us = icmp sgt i32 %29, %32
  br i1 %.not.i.us, label %42, label %38

38:                                               ; preds = %28
  %notmask30.i.us = shl nsw i32 -1, %29
  %39 = xor i32 %notmask30.i.us, -1
  %40 = and i32 %37, %39
  %41 = sext i32 %29 to i64
  br label %_ZN5faiss15BitstringReader4readEi.exit.us

42:                                               ; preds = %28
  %43 = zext nneg i32 %37 to i64
  %44 = zext nneg i32 %29 to i64
  %45 = sub nsw i32 %29, %32
  %.02431.i.us = add nuw nsw i64 %33, 1
  %46 = icmp sgt i32 %45, 8
  br i1 %46, label %.lr.ph.preheader.i.us, label %._crit_edge.i.us

.lr.ph.preheader.i.us:                            ; preds = %42
  %47 = zext nneg i32 %32 to i64
  br label %.lr.ph.i.us

.lr.ph.i.us:                                      ; preds = %.lr.ph.i.us, %.lr.ph.preheader.i.us
  %indvars.iv.i.us = phi i64 [ %47, %.lr.ph.preheader.i.us ], [ %indvars.iv.next.i.us, %.lr.ph.i.us ]
  %.02435.i.us = phi i64 [ %.02431.i.us, %.lr.ph.preheader.i.us ], [ %.024.i.us, %.lr.ph.i.us ]
  %.02633.i.us = phi i64 [ %43, %.lr.ph.preheader.i.us ], [ %52, %.lr.ph.i.us ]
  %.02732.i.us = phi i32 [ %45, %.lr.ph.preheader.i.us ], [ %53, %.lr.ph.i.us ]
  %48 = getelementptr inbounds nuw i8, ptr %25, i64 %.02435.i.us
  %49 = load i8, ptr %48, align 1, !tbaa !14
  %50 = zext i8 %49 to i64
  %51 = shl i64 %50, %indvars.iv.i.us
  %52 = or i64 %51, %.02633.i.us
  %indvars.iv.next.i.us = add nuw nsw i64 %indvars.iv.i.us, 8
  %53 = add nsw i32 %.02732.i.us, -8
  %.024.i.us = add nuw nsw i64 %.02435.i.us, 1
  %54 = icmp samesign ugt i32 %.02732.i.us, 16
  br i1 %54, label %.lr.ph.i.us, label %._crit_edge.loopexit.i.us, !llvm.loop !997

._crit_edge.loopexit.i.us:                        ; preds = %.lr.ph.i.us
  %55 = trunc nuw i64 %indvars.iv.next.i.us to i32
  br label %._crit_edge.i.us

._crit_edge.i.us:                                 ; preds = %._crit_edge.loopexit.i.us, %42
  %.027.lcssa.i.us = phi i32 [ %45, %42 ], [ %53, %._crit_edge.loopexit.i.us ]
  %.026.lcssa.i.us = phi i64 [ %43, %42 ], [ %52, %._crit_edge.loopexit.i.us ]
  %.025.lcssa.i.us = phi i32 [ %32, %42 ], [ %55, %._crit_edge.loopexit.i.us ]
  %.024.lcssa.i.us = phi i64 [ %.02431.i.us, %42 ], [ %.024.i.us, %._crit_edge.loopexit.i.us ]
  %56 = getelementptr inbounds nuw i8, ptr %25, i64 %.024.lcssa.i.us
  %57 = load i8, ptr %56, align 1, !tbaa !14
  %notmask.i.us = shl nsw i32 -1, %.027.lcssa.i.us
  %58 = xor i32 %notmask.i.us, -1
  %59 = zext i8 %57 to i32
  %60 = and i32 %59, %58
  %61 = zext nneg i32 %60 to i64
  %62 = zext nneg i32 %.025.lcssa.i.us to i64
  %63 = shl i64 %61, %62
  %64 = or i64 %63, %.026.lcssa.i.us
  %65 = trunc i64 %64 to i32
  br label %_ZN5faiss15BitstringReader4readEi.exit.us

_ZN5faiss15BitstringReader4readEi.exit.us:        ; preds = %._crit_edge.i.us, %38
  %.pn.us = phi i64 [ %44, %._crit_edge.i.us ], [ %41, %38 ]
  %.0.i.us = phi i32 [ %65, %._crit_edge.i.us ], [ %40, %38 ]
  %.sroa.5.1.us = add i64 %.pn.us, %.sroa.5.025.us
  %66 = getelementptr inbounds nuw i32, ptr %27, i64 %indvars.iv
  store i32 %.0.i.us, ptr %66, align 4, !tbaa !10
  %indvars.iv.next = add nuw nsw i64 %indvars.iv, 1
  %exitcond.not = icmp eq i64 %indvars.iv.next, %23
  br i1 %exitcond.not, label %._crit_edge.us, label %28, !llvm.loop !998

._crit_edge.us:                                   ; preds = %_ZN5faiss15BitstringReader4readEi.exit.us
  %67 = add nuw i64 %.02227.us, 1
  %exitcond35.not = icmp eq i64 %.02227.us, %18
  br i1 %exitcond35.not, label %._crit_edge30, label %.lr.ph.us

._crit_edge30:                                    ; preds = %._crit_edge.us, %.lr.ph29, %14
  call void @__kmpc_for_static_fini(ptr nonnull @1, i32 %16)
  call void @llvm.lifetime.end.p0(i64 4, ptr nonnull %12) #5
  call void @llvm.lifetime.end.p0(i64 8, ptr nonnull %11) #5
  call void @llvm.lifetime.end.p0(i64 8, ptr nonnull %10) #5
  call void @llvm.lifetime.end.p0(i64 8, ptr nonnull %9) #5
  br label %68

68:                                               ; preds = %._crit_edge30, %8
  ret void
}